target datalayout = "e-m:e-p270:32:32-p271:32:32-p272:64:64-i64:64-i128:128-f80:128-n8:16:32:64-S128"
target triple = "x86_64-pc-linux-gnu"

; Function Attrs: mustprogress nounwind uwtable
define dso_local void @_ZN4absl15random_internal10RandenSlow6AbsorbEPKvPv(ptr noundef %0, ptr noundef %1) #0 align 2 {
  %3 = alloca ptr, align 8
  %4 = alloca ptr, align 8
  %5 = alloca ptr, align 8
  %6 = alloca ptr, align 8
  %7 = alloca i64, align 8
  %8 = alloca i64, align 8
  store ptr %0, ptr %3, align 8, !tbaa !4
  store ptr %1, ptr %4, align 8, !tbaa !4
  call void @llvm.lifetime.start.p0(i64 8, ptr %5) #7
  %9 = load ptr, ptr %4, align 8, !tbaa !4
  store ptr %9, ptr %5, align 8, !tbaa !8
  call void @llvm.lifetime.start.p0(i64 8, ptr %6) #7
  %10 = load ptr, ptr %3, align 8, !tbaa !4
  store ptr %10, ptr %6, align 8, !tbaa !8
  call void @llvm.lifetime.start.p0(i64 8, ptr %7) #7
  store i64 2, ptr %7, align 8, !tbaa !10
  call void @llvm.lifetime.start.p0(i64 8, ptr %8) #7
  store i64 2, ptr %8, align 8, !tbaa !10
  br label %11

11:                                               ; preds = %26, %2
  %12 = load i64, ptr %8, align 8, !tbaa !10
  %13 = icmp ult i64 %12, 32
  br i1 %13, label %15, label %14

14:                                               ; preds = %11
  call void @llvm.lifetime.end.p0(i64 8, ptr %8) #7
  br label %29

15:                                               ; preds = %11
  %16 = load ptr, ptr %6, align 8, !tbaa !8
  %17 = load i64, ptr %8, align 8, !tbaa !10
  %18 = sub i64 %17, 2
  %19 = getelementptr inbounds nuw i64, ptr %16, i64 %18
  %20 = load i64, ptr %19, align 8, !tbaa !10
  %21 = load ptr, ptr %5, align 8, !tbaa !8
  %22 = load i64, ptr %8, align 8, !tbaa !10
  %23 = getelementptr inbounds nuw i64, ptr %21, i64 %22
  %24 = load i64, ptr %23, align 8, !tbaa !10
  %25 = xor i64 %24, %20
  store i64 %25, ptr %23, align 8, !tbaa !10
  br label %26

26:                                               ; preds = %15
  %27 = load i64, ptr %8, align 8, !tbaa !10
  %28 = add i64 %27, 1
  store i64 %28, ptr %8, align 8, !tbaa !10
  br label %11, !llvm.loop !12

29:                                               ; preds = %14
  call void @llvm.lifetime.end.p0(i64 8, ptr %7) #7
  call void @llvm.lifetime.end.p0(i64 8, ptr %6) #7
  call void @llvm.lifetime.end.p0(i64 8, ptr %5) #7
  ret void
}